; Function Attrs: mustprogress uwtable
define dso_local void @_ZN4absl18debugging_internal11ElfMemImageC2EPKv(ptr noundef nonnull writeonly align 8 captures(none) dereferenceable(72) %0, ptr noundef %1) unnamed_addr #0 align 2 {
  %.not = icmp eq ptr %1, @_ZN4absl18debugging_internal11ElfMemImage20kInvalidBaseSentinelE
  br i1 %.not, label %3, label %4, !prof !4

3:                                                ; preds = %2
  tail call void (i32, ptr, i32, ptr, ...) @_ZN4absl16raw_log_internal6RawLogENS_11LogSeverityEPKciS3_z(i32 noundef 3, ptr noundef nonnull getelementptr inbounds nuw (i8, ptr @.str, i64 123), i32 noundef 88, ptr noundef nonnull @.str.1, ptr noundef nonnull @.str.2, ptr noundef nonnull @.str.3)
  unreachable

4:                                                ; preds = %2
  tail call void @_ZN4absl18debugging_internal11ElfMemImage4InitEPKv(ptr noundef nonnull align 8 dereferenceable(72) %0, ptr noundef %1)
  ret void
}